target datalayout = "e-m:e-p270:32:32-p271:32:32-p272:64:64-i64:64-i128:128-f80:128-n8:16:32:64-S128"
target triple = "x86_64-pc-linux-gnu"

%struct.OSSL_TIME = type { i64 }
%struct.ssl_st = type { i32, ptr, ptr, ptr, %struct.CRYPTO_REF_COUNT, ptr, %struct.crypto_ex_data_st }
%struct.CRYPTO_REF_COUNT = type { i32 }
%struct.crypto_ex_data_st = type { ptr, ptr }
%struct.ssl_connection_st = type { %struct.ssl_st, ptr, i32, ptr, ptr, ptr, i32, ptr, i32, i32, i32, i32, %struct.OSSL_TIME, %struct.OSSL_TIME, %struct.ossl_statem_st, i32, ptr, ptr, i64, i64, i64, %struct.ossl_quic_tls_callbacks_st, ptr, ptr, %struct.anon, ptr, ptr, ptr, i32, ptr, %struct.ssl_dane_st, ptr, ptr, ptr, ptr, i32, [64 x i8], [64 x i8], [64 x i8], [64 x i8], [64 x i8], [64 x i8], [64 x i8], [64 x i8], [64 x i8], [64 x i8], [64 x i8], [64 x i8], ptr, [64 x i8], i64, i32, i64, [32 x i8], ptr, ptr, ptr, i64, ptr, [32 x i8], i64, i32, ptr, ptr, i32, i32, ptr, ptr, ptr, ptr, ptr, i64, ptr, ptr, i64, i32, i32, i32, i64, i32, i32, i64, i64, i64, %struct.anon.1, ptr, i32, ptr, ptr, ptr, i32, ptr, ptr, ptr, i32, i32, i32, i32, ptr, i64, i32, ptr, %struct.srp_ctx_st, ptr, %struct.record_layer_st, ptr, ptr, ptr, ptr, i64, i32, i32, i32, i64, i64, i64, ptr, ptr, ptr, ptr, ptr, i64, ptr, i64, ptr, i64 }
%struct.ossl_statem_st = type { i32, i32, i32, i32, i32, i32, i32, i32, i32, i32, i32, i32, i32, ptr, ptr, ptr, i8 }
%struct.ossl_quic_tls_callbacks_st = type { ptr, ptr, ptr, ptr, ptr, ptr }
%struct.anon = type { i64, [32 x i8], [32 x i8], ptr, ptr, i32, i32, i32, i32, [2 x i8], i32, i32, i32, i32, %struct.anon.0, [64 x i8], i64, [64 x i8], i64, i32, i32, ptr, i64, ptr, i64, i32, i8, i8, i16, ptr, i16 }
%struct.anon.0 = type { [128 x i8], i64, [128 x i8], i64, i64, i32, ptr, ptr, [4 x ptr], [4 x i16], i64, i32, ptr, i64, ptr, i64, ptr, ptr, ptr, i32, i64, ptr, i32, ptr, i64, ptr, i64, ptr, i64, ptr, ptr, ptr, ptr, i64, i64, ptr, ptr, i32, i32, i32, i32 }
%struct.ssl_dane_st = type { ptr, ptr, ptr, ptr, ptr, i32, i32, i32, i64 }
%struct.anon.1 = type { [29 x i8], ptr, ptr, ptr, i32, ptr, i16, i32, %struct.anon.2, i32, i32, i64, ptr, i64, ptr, i64, ptr, i64, ptr, i64, ptr, i64, ptr, ptr, ptr, ptr, ptr, ptr, ptr, i64, ptr, i64, i32, i32, i32, i32, ptr, i64, i32, i8, i32, [4 x i32], i32, i8, i8, i8, i8 }
%struct.anon.2 = type { ptr, ptr, ptr, i64 }
%struct.srp_ctx_st = type { ptr, ptr, ptr, ptr, ptr, ptr, ptr, ptr, ptr, ptr, ptr, ptr, ptr, ptr, i32, i64 }
%struct.record_layer_st = type { ptr, ptr, ptr, ptr, ptr, ptr, ptr, ptr, i64, i32, i64, [4 x i8], i64, i64, i8, ptr, i32, ptr, ptr, ptr, i64, i64, i64, i64, [32 x %struct.tls_record_st] }
%struct.tls_record_st = type { ptr, i32, i8, ptr, ptr, i64, i64, i16, [8 x i8] }
%struct.sigalg_lookup_st = type { ptr, i16, i32, i32, i32, i32, i32, i32, i32 }

; Function Attrs: nounwind uwtable
define i32 @SSL_get_shared_sigalgs(ptr noundef %0, i32 noundef %1, ptr noundef %2, ptr noundef %3, ptr noundef %4, ptr noundef %5, ptr noundef %6) #1 {
  %8 = alloca i32, align 4
  %9 = alloca ptr, align 8
  %10 = alloca i32, align 4
  %11 = alloca ptr, align 8
  %12 = alloca ptr, align 8
  %13 = alloca ptr, align 8
  %14 = alloca ptr, align 8
  %15 = alloca ptr, align 8
  %16 = alloca ptr, align 8
  %17 = alloca ptr, align 8
  %18 = alloca i32, align 4
  store ptr %0, ptr %9, align 8, !tbaa !9
  store i32 %1, ptr %10, align 4, !tbaa !128
  store ptr %2, ptr %11, align 8, !tbaa !151
  store ptr %3, ptr %12, align 8, !tbaa !151
  store ptr %4, ptr %13, align 8, !tbaa !151
  store ptr %5, ptr %14, align 8, !tbaa !172
  store ptr %6, ptr %15, align 8, !tbaa !172
  call void @llvm.lifetime.start.p0(i64 8, ptr %16) #8
  call void @llvm.lifetime.start.p0(i64 8, ptr %17) #8
  %19 = load ptr, ptr %9, align 8, !tbaa !9
  %20 = icmp eq ptr %19, null
  br i1 %20, label %21, label %22

21:                                               ; preds = %7
  br label %43

22:                                               ; preds = %7
  %23 = load ptr, ptr %9, align 8, !tbaa !9
  %24 = getelementptr inbounds nuw %struct.ssl_st, ptr %23, i32 0, i32 0
  %25 = load i32, ptr %24, align 8, !tbaa !24
  %26 = icmp eq i32 %25, 0
  br i1 %26, label %27, label %29

27:                                               ; preds = %22
  %28 = load ptr, ptr %9, align 8, !tbaa !9
  br label %41

29:                                               ; preds = %22
  %30 = load ptr, ptr %9, align 8, !tbaa !9
  %31 = getelementptr inbounds nuw %struct.ssl_st, ptr %30, i32 0, i32 0
  %32 = load i32, ptr %31, align 8, !tbaa !24
  %33 = and i32 %32, 128
  %34 = icmp ne i32 %33, 0
  br i1 %34, label %35, label %38

35:                                               ; preds = %29
  %36 = load ptr, ptr %9, align 8, !tbaa !9
  %37 = call ptr @ossl_quic_obj_get0_handshake_layer(ptr noundef %36)
  br label %39

38:                                               ; preds = %29
  br label %39

39:                                               ; preds = %38, %35
  %40 = phi ptr [ %37, %35 ], [ null, %38 ]
  br label %41

41:                                               ; preds = %39, %27
  %42 = phi ptr [ %28, %27 ], [ %40, %39 ]
  br label %43

43:                                               ; preds = %41, %21
  %44 = phi ptr [ null, %21 ], [ %42, %41 ]
  store ptr %44, ptr %17, align 8, !tbaa !25
  %45 = load ptr, ptr %17, align 8, !tbaa !25
  %46 = icmp eq ptr %45, null
  br i1 %46, label %47, label %48

47:                                               ; preds = %43
  store i32 0, ptr %8, align 4
  store i32 1, ptr %18, align 4
  br label %128

48:                                               ; preds = %43
  %49 = load ptr, ptr %17, align 8, !tbaa !25
  %50 = getelementptr inbounds nuw %struct.ssl_connection_st, ptr %49, i32 0, i32 120
  %51 = load ptr, ptr %50, align 8, !tbaa !267
  %52 = icmp eq ptr %51, null
  br i1 %52, label %68, label %53

53:                                               ; preds = %48
  %54 = load i32, ptr %10, align 4, !tbaa !128
  %55 = icmp slt i32 %54, 0
  br i1 %55, label %68, label %56

56:                                               ; preds = %53
  %57 = load i32, ptr %10, align 4, !tbaa !128
  %58 = load ptr, ptr %17, align 8, !tbaa !25
  %59 = getelementptr inbounds nuw %struct.ssl_connection_st, ptr %58, i32 0, i32 121
  %60 = load i64, ptr %59, align 8, !tbaa !268
  %61 = trunc i64 %60 to i32
  %62 = icmp sge i32 %57, %61
  br i1 %62, label %68, label %63

63:                                               ; preds = %56
  %64 = load ptr, ptr %17, align 8, !tbaa !25
  %65 = getelementptr inbounds nuw %struct.ssl_connection_st, ptr %64, i32 0, i32 121
  %66 = load i64, ptr %65, align 8, !tbaa !268
  %67 = icmp ugt i64 %66, 2147483647
  br i1 %67, label %68, label %69

68:                                               ; preds = %63, %56, %53, %48
  store i32 0, ptr %8, align 4
  store i32 1, ptr %18, align 4
  br label %128

69:                                               ; preds = %63
  %70 = load ptr, ptr %17, align 8, !tbaa !25
  %71 = getelementptr inbounds nuw %struct.ssl_connection_st, ptr %70, i32 0, i32 120
  %72 = load ptr, ptr %71, align 8, !tbaa !267
  %73 = load i32, ptr %10, align 4, !tbaa !128
  %74 = sext i32 %73 to i64
  %75 = getelementptr inbounds ptr, ptr %72, i64 %74
  %76 = load ptr, ptr %75, align 8, !tbaa !201
  store ptr %76, ptr %16, align 8, !tbaa !201
  %77 = load ptr, ptr %12, align 8, !tbaa !151
  %78 = icmp ne ptr %77, null
  br i1 %78, label %79, label %84

79:                                               ; preds = %69
  %80 = load ptr, ptr %16, align 8, !tbaa !201
  %81 = getelementptr inbounds nuw %struct.sigalg_lookup_st, ptr %80, i32 0, i32 2
  %82 = load i32, ptr %81, align 4, !tbaa !204
  %83 = load ptr, ptr %12, align 8, !tbaa !151
  store i32 %82, ptr %83, align 4, !tbaa !128
  br label %84

84:                                               ; preds = %79, %69
  %85 = load ptr, ptr %11, align 8, !tbaa !151
  %86 = icmp ne ptr %85, null
  br i1 %86, label %87, label %92

87:                                               ; preds = %84
  %88 = load ptr, ptr %16, align 8, !tbaa !201
  %89 = getelementptr inbounds nuw %struct.sigalg_lookup_st, ptr %88, i32 0, i32 4
  %90 = load i32, ptr %89, align 4, !tbaa !209
  %91 = load ptr, ptr %11, align 8, !tbaa !151
  store i32 %90, ptr %91, align 4, !tbaa !128
  br label %92

92:                                               ; preds = %87, %84
  %93 = load ptr, ptr %13, align 8, !tbaa !151
  %94 = icmp ne ptr %93, null
  br i1 %94, label %95, label %100

95:                                               ; preds = %92
  %96 = load ptr, ptr %16, align 8, !tbaa !201
  %97 = getelementptr inbounds nuw %struct.sigalg_lookup_st, ptr %96, i32 0, i32 6
  %98 = load i32, ptr %97, align 4, !tbaa !221
  %99 = load ptr, ptr %13, align 8, !tbaa !151
  store i32 %98, ptr %99, align 4, !tbaa !128
  br label %100

100:                                              ; preds = %95, %92
  %101 = load ptr, ptr %14, align 8, !tbaa !172
  %102 = icmp ne ptr %101, null
  br i1 %102, label %103, label %111

103:                                              ; preds = %100
  %104 = load ptr, ptr %16, align 8, !tbaa !201
  %105 = getelementptr inbounds nuw %struct.sigalg_lookup_st, ptr %104, i32 0, i32 1
  %106 = load i16, ptr %105, align 8, !tbaa !218
  %107 = zext i16 %106 to i32
  %108 = and i32 %107, 255
  %109 = trunc i32 %108 to i8
  %110 = load ptr, ptr %14, align 8, !tbaa !172
  store i8 %109, ptr %110, align 1, !tbaa !161
  br label %111

111:                                              ; preds = %103, %100
  %112 = load ptr, ptr %15, align 8, !tbaa !172
  %113 = icmp ne ptr %112, null
  br i1 %113, label %114, label %123

114:                                              ; preds = %111
  %115 = load ptr, ptr %16, align 8, !tbaa !201
  %116 = getelementptr inbounds nuw %struct.sigalg_lookup_st, ptr %115, i32 0, i32 1
  %117 = load i16, ptr %116, align 8, !tbaa !218
  %118 = zext i16 %117 to i32
  %119 = ashr i32 %118, 8
  %120 = and i32 %119, 255
  %121 = trunc i32 %120 to i8
  %122 = load ptr, ptr %15, align 8, !tbaa !172
  store i8 %121, ptr %122, align 1, !tbaa !161
  br label %123

123:                                              ; preds = %114, %111
  %124 = load ptr, ptr %17, align 8, !tbaa !25
  %125 = getelementptr inbounds nuw %struct.ssl_connection_st, ptr %124, i32 0, i32 121
  %126 = load i64, ptr %125, align 8, !tbaa !268
  %127 = trunc i64 %126 to i32
  store i32 %127, ptr %8, align 4
  store i32 1, ptr %18, align 4
  br label %128

128:                                              ; preds = %123, %68, %47
  call void @llvm.lifetime.end.p0(i64 8, ptr %17) #8
  call void @llvm.lifetime.end.p0(i64 8, ptr %16) #8
  %129 = load i32, ptr %8, align 4
  ret i32 %129
}