; Function Attrs: nounwind uwtable
define i32 @SSL_get_shared_sigalgs(ptr noundef %0, i32 noundef %1, ptr noundef writeonly captures(address_is_null) %2, ptr noundef writeonly captures(address_is_null) %3, ptr noundef writeonly captures(address_is_null) %4, ptr noundef writeonly captures(address_is_null) %5, ptr noundef writeonly captures(address_is_null) %6) local_unnamed_addr #2 {
  %8 = icmp eq ptr %0, null
  br i1 %8, label %.thread, label %9

9:                                                ; preds = %7
  %10 = load i32, ptr %0, align 8, !tbaa !19
  %11 = icmp eq i32 %10, 0
  br i1 %11, label %.thread47, label %12

12:                                               ; preds = %9
  %13 = and i32 %10, 128
  %.not = icmp eq i32 %13, 0
  br i1 %.not, label %.thread, label %14

14:                                               ; preds = %12
  %15 = tail call ptr @ossl_quic_obj_get0_handshake_layer(ptr noundef nonnull %0) #14
  %16 = icmp eq ptr %15, null
  br i1 %16, label %.thread, label %.thread47

.thread47:                                        ; preds = %9, %14
  %17 = phi ptr [ %15, %14 ], [ %0, %9 ]
  %18 = getelementptr inbounds nuw i8, ptr %17, i64 5512
  %19 = load ptr, ptr %18, align 8, !tbaa !229
  %20 = icmp eq ptr %19, null
  %21 = icmp slt i32 %1, 0
  %or.cond = or i1 %21, %20
  br i1 %or.cond, label %.thread, label %22

22:                                               ; preds = %.thread47
  %23 = getelementptr inbounds nuw i8, ptr %17, i64 5520
  %24 = load i64, ptr %23, align 8, !tbaa !239
  %25 = trunc i64 %24 to i32
  %.not40 = icmp sge i32 %1, %25
  %26 = icmp ugt i64 %24, 2147483647
  %or.cond46 = or i1 %26, %.not40
  br i1 %or.cond46, label %.thread, label %27

27:                                               ; preds = %22
  %28 = zext nneg i32 %1 to i64
  %29 = getelementptr inbounds nuw ptr, ptr %19, i64 %28
  %30 = load ptr, ptr %29, align 8, !tbaa !238
  %.not41 = icmp eq ptr %3, null
  br i1 %.not41, label %34, label %31

31:                                               ; preds = %27
  %32 = getelementptr inbounds nuw i8, ptr %30, i64 12
  %33 = load i32, ptr %32, align 4, !tbaa !178
  store i32 %33, ptr %3, align 4, !tbaa !135
  br label %34

34:                                               ; preds = %31, %27
  %.not42 = icmp eq ptr %2, null
  br i1 %.not42, label %38, label %35

35:                                               ; preds = %34
  %36 = getelementptr inbounds nuw i8, ptr %30, i64 20
  %37 = load i32, ptr %36, align 4, !tbaa !183
  store i32 %37, ptr %2, align 4, !tbaa !135
  br label %38

38:                                               ; preds = %35, %34
  %.not43 = icmp eq ptr %4, null
  br i1 %.not43, label %42, label %39

39:                                               ; preds = %38
  %40 = getelementptr inbounds nuw i8, ptr %30, i64 28
  %41 = load i32, ptr %40, align 4, !tbaa !189
  store i32 %41, ptr %4, align 4, !tbaa !135
  br label %42

42:                                               ; preds = %39, %38
  %.not44 = icmp eq ptr %5, null
  br i1 %.not44, label %47, label %43

43:                                               ; preds = %42
  %44 = getelementptr inbounds nuw i8, ptr %30, i64 8
  %45 = load i16, ptr %44, align 8, !tbaa !187
  %46 = trunc i16 %45 to i8
  store i8 %46, ptr %5, align 1, !tbaa !141
  br label %47

47:                                               ; preds = %43, %42
  %.not45 = icmp eq ptr %6, null
  br i1 %.not45, label %53, label %48

48:                                               ; preds = %47
  %49 = getelementptr inbounds nuw i8, ptr %30, i64 8
  %50 = load i16, ptr %49, align 8, !tbaa !187
  %51 = lshr i16 %50, 8
  %52 = trunc nuw i16 %51 to i8
  store i8 %52, ptr %6, align 1, !tbaa !141
  br label %53

53:                                               ; preds = %48, %47
  %54 = load i64, ptr %23, align 8, !tbaa !239
  %55 = trunc i64 %54 to i32
  br label %.thread

.thread:                                          ; preds = %12, %7, %.thread47, %22, %14, %53
  %.0 = phi i32 [ %55, %53 ], [ 0, %14 ], [ 0, %22 ], [ 0, %.thread47 ], [ 0, %7 ], [ 0, %12 ]
  ret i32 %.0
}